target datalayout = "e-m:e-p270:32:32-p271:32:32-p272:64:64-i64:64-i128:128-f80:128-n8:16:32:64-S128"
target triple = "x86_64-pc-linux-gnu"

%"class.ozz::animation::offline::FixedRateSamplingTime" = type { float, float, i64 }

; Function Attrs: inlinehint mustprogress nounwind uwtable
define linkonce_odr dso_local noundef float @_ZSt4ceilf(float noundef %0) #9 comdat {
  %2 = alloca float, align 4
  store float %0, ptr %2, align 4, !tbaa !9
  %3 = load float, ptr %2, align 4, !tbaa !9
  %4 = call float @llvm.ceil.f32(float %3)
  ret float %4
}

; Function Attrs: mustprogress uwtable
define dso_local void @_ZN3ozz9animation7offline21FixedRateSamplingTimeC2Eff(ptr noundef nonnull align 8 dereferenceable(16) %0, float noundef %1, float noundef %2) unnamed_addr #5 align 2 {
  %4 = alloca ptr, align 8
  %5 = alloca float, align 4
  %6 = alloca float, align 4
  store ptr %0, ptr %4, align 8, !tbaa !75
  store float %1, ptr %5, align 4, !tbaa !9
  store float %2, ptr %6, align 4, !tbaa !9
  %7 = load ptr, ptr %4, align 8
  %8 = getelementptr inbounds nuw %"class.ozz::animation::offline::FixedRateSamplingTime", ptr %7, i32 0, i32 0
  %9 = load float, ptr %5, align 4, !tbaa !9
  store float %9, ptr %8, align 8, !tbaa !77
  %10 = getelementptr inbounds nuw %"class.ozz::animation::offline::FixedRateSamplingTime", ptr %7, i32 0, i32 1
  %11 = load float, ptr %6, align 4, !tbaa !9
  %12 = fdiv float 1.000000e+00, %11
  store float %12, ptr %10, align 4, !tbaa !79
  %13 = getelementptr inbounds nuw %"class.ozz::animation::offline::FixedRateSamplingTime", ptr %7, i32 0, i32 2
  %14 = load float, ptr %5, align 4, !tbaa !9
  %15 = load float, ptr %6, align 4, !tbaa !9
  %16 = call float @llvm.fmuladd.f32(float %14, float %15, float 1.000000e+00)
  %17 = call noundef float @_ZSt4ceilf(float noundef %16)
  %18 = fptoui float %17 to i64
  store i64 %18, ptr %13, align 8, !tbaa !80
  ret void
}