; Function Attrs: mustprogress nofree norecurse nosync nounwind willreturn memory(argmem: write) uwtable
define dso_local void @_ZN3ozz9animation7offline21FixedRateSamplingTimeC2Eff(ptr noundef nonnull writeonly align 8 captures(none) dereferenceable(16) initializes((0, 16)) %0, float noundef %1, float noundef %2) unnamed_addr #7 align 2 {
  store float %1, ptr %0, align 8, !tbaa !68
  %4 = getelementptr inbounds nuw i8, ptr %0, i64 4
  %5 = fdiv float 1.000000e+00, %2
  store float %5, ptr %4, align 4, !tbaa !70
  %6 = getelementptr inbounds nuw i8, ptr %0, i64 8
  %7 = tail call float @llvm.fmuladd.f32(float %1, float %2, float 1.000000e+00)
  %8 = tail call noundef float @llvm.ceil.f32(float %7)
  %9 = fptoui float %8 to i64
  store i64 %9, ptr %6, align 8, !tbaa !71
  ret void
}